target datalayout = "e-m:e-p270:32:32-p271:32:32-p272:64:64-i64:64-i128:128-f80:128-n8:16:32:64-S128"
target triple = "x86_64-pc-linux-gnu"

; Function Attrs: nounwind uwtable
define hidden void @KeccakP1600_ExtractAndAddLanes(ptr noundef %0, ptr noundef %1, ptr noundef %2, i32 noundef %3) #0 {
  %5 = alloca ptr, align 8
  %6 = alloca ptr, align 8
  %7 = alloca ptr, align 8
  %8 = alloca i32, align 4
  %9 = alloca i32, align 4
  store ptr %0, ptr %5, align 8, !tbaa !4
  store ptr %1, ptr %6, align 8, !tbaa !12
  store ptr %2, ptr %7, align 8, !tbaa !12
  store i32 %3, ptr %8, align 4, !tbaa !10
  call void @llvm.lifetime.start.p0(i64 4, ptr %9) #4
  store i32 0, ptr %9, align 4, !tbaa !10
  br label %10

10:                                               ; preds = %30, %4
  %11 = load i32, ptr %9, align 4, !tbaa !10
  %12 = load i32, ptr %8, align 4, !tbaa !10
  %13 = icmp ult i32 %11, %12
  br i1 %13, label %14, label %33

14:                                               ; preds = %10
  %15 = load ptr, ptr %6, align 8, !tbaa !12
  %16 = load i32, ptr %9, align 4, !tbaa !10
  %17 = zext i32 %16 to i64
  %18 = getelementptr inbounds nuw i64, ptr %15, i64 %17
  %19 = load i64, ptr %18, align 8, !tbaa !8
  %20 = load ptr, ptr %5, align 8, !tbaa !4
  %21 = load i32, ptr %9, align 4, !tbaa !10
  %22 = zext i32 %21 to i64
  %23 = getelementptr inbounds nuw i64, ptr %20, i64 %22
  %24 = load i64, ptr %23, align 8, !tbaa !8
  %25 = xor i64 %19, %24
  %26 = load ptr, ptr %7, align 8, !tbaa !12
  %27 = load i32, ptr %9, align 4, !tbaa !10
  %28 = zext i32 %27 to i64
  %29 = getelementptr inbounds nuw i64, ptr %26, i64 %28
  store i64 %25, ptr %29, align 8, !tbaa !8
  br label %30

30:                                               ; preds = %14
  %31 = load i32, ptr %9, align 4, !tbaa !10
  %32 = add i32 %31, 1
  store i32 %32, ptr %9, align 4, !tbaa !10
  br label %10

33:                                               ; preds = %10
  %34 = load i32, ptr %8, align 4, !tbaa !10
  %35 = icmp ugt i32 %34, 1
  br i1 %35, label %36, label %93

36:                                               ; preds = %33
  %37 = load ptr, ptr %7, align 8, !tbaa !12
  %38 = getelementptr inbounds i64, ptr %37, i64 1
  %39 = load i64, ptr %38, align 8, !tbaa !8
  %40 = xor i64 %39, -1
  %41 = load ptr, ptr %7, align 8, !tbaa !12
  %42 = getelementptr inbounds i64, ptr %41, i64 1
  store i64 %40, ptr %42, align 8, !tbaa !8
  %43 = load i32, ptr %8, align 4, !tbaa !10
  %44 = icmp ugt i32 %43, 2
  br i1 %44, label %45, label %92

45:                                               ; preds = %36
  %46 = load ptr, ptr %7, align 8, !tbaa !12
  %47 = getelementptr inbounds i64, ptr %46, i64 2
  %48 = load i64, ptr %47, align 8, !tbaa !8
  %49 = xor i64 %48, -1
  %50 = load ptr, ptr %7, align 8, !tbaa !12
  %51 = getelementptr inbounds i64, ptr %50, i64 2
  store i64 %49, ptr %51, align 8, !tbaa !8
  %52 = load i32, ptr %8, align 4, !tbaa !10
  %53 = icmp ugt i32 %52, 8
  br i1 %53, label %54, label %91

54:                                               ; preds = %45
  %55 = load ptr, ptr %7, align 8, !tbaa !12
  %56 = getelementptr inbounds i64, ptr %55, i64 8
  %57 = load i64, ptr %56, align 8, !tbaa !8
  %58 = xor i64 %57, -1
  %59 = load ptr, ptr %7, align 8, !tbaa !12
  %60 = getelementptr inbounds i64, ptr %59, i64 8
  store i64 %58, ptr %60, align 8, !tbaa !8
  %61 = load i32, ptr %8, align 4, !tbaa !10
  %62 = icmp ugt i32 %61, 12
  br i1 %62, label %63, label %90

63:                                               ; preds = %54
  %64 = load ptr, ptr %7, align 8, !tbaa !12
  %65 = getelementptr inbounds i64, ptr %64, i64 12
  %66 = load i64, ptr %65, align 8, !tbaa !8
  %67 = xor i64 %66, -1
  %68 = load ptr, ptr %7, align 8, !tbaa !12
  %69 = getelementptr inbounds i64, ptr %68, i64 12
  store i64 %67, ptr %69, align 8, !tbaa !8
  %70 = load i32, ptr %8, align 4, !tbaa !10
  %71 = icmp ugt i32 %70, 17
  br i1 %71, label %72, label %89

72:                                               ; preds = %63
  %73 = load ptr, ptr %7, align 8, !tbaa !12
  %74 = getelementptr inbounds i64, ptr %73, i64 17
  %75 = load i64, ptr %74, align 8, !tbaa !8
  %76 = xor i64 %75, -1
  %77 = load ptr, ptr %7, align 8, !tbaa !12
  %78 = getelementptr inbounds i64, ptr %77, i64 17
  store i64 %76, ptr %78, align 8, !tbaa !8
  %79 = load i32, ptr %8, align 4, !tbaa !10
  %80 = icmp ugt i32 %79, 20
  br i1 %80, label %81, label %88

81:                                               ; preds = %72
  %82 = load ptr, ptr %7, align 8, !tbaa !12
  %83 = getelementptr inbounds i64, ptr %82, i64 20
  %84 = load i64, ptr %83, align 8, !tbaa !8
  %85 = xor i64 %84, -1
  %86 = load ptr, ptr %7, align 8, !tbaa !12
  %87 = getelementptr inbounds i64, ptr %86, i64 20
  store i64 %85, ptr %87, align 8, !tbaa !8
  br label %88

88:                                               ; preds = %81, %72
  br label %89

89:                                               ; preds = %88, %63
  br label %90

90:                                               ; preds = %89, %54
  br label %91

91:                                               ; preds = %90, %45
  br label %92

92:                                               ; preds = %91, %36
  br label %93

93:                                               ; preds = %92, %33
  call void @llvm.lifetime.end.p0(i64 4, ptr %9) #4
  ret void
}