; Function Attrs: nofree norecurse nosync nounwind memory(argmem: readwrite) uwtable
define hidden void @KeccakP1600_ExtractAndAddLanes(ptr noundef readonly captures(none) %0, ptr noundef readonly captures(none) %1, ptr noundef captures(none) %2, i32 noundef %3) local_unnamed_addr #5 {
  %.not28 = icmp eq i32 %3, 0
  br i1 %.not28, label %._crit_edge.thread, label %.lr.ph.preheader

.lr.ph.preheader:                                 ; preds = %4
  %wide.trip.count = zext i32 %3 to i64
  br label %.lr.ph

.lr.ph:                                           ; preds = %.lr.ph.preheader, %.lr.ph
  %indvars.iv = phi i64 [ 0, %.lr.ph.preheader ], [ %indvars.iv.next, %.lr.ph ]
  %5 = getelementptr inbounds nuw i64, ptr %1, i64 %indvars.iv
  %6 = load i64, ptr %5, align 8, !tbaa !4
  %7 = getelementptr inbounds nuw i64, ptr %0, i64 %indvars.iv
  %8 = load i64, ptr %7, align 8, !tbaa !4
  %9 = xor i64 %8, %6
  %10 = getelementptr inbounds nuw i64, ptr %2, i64 %indvars.iv
  store i64 %9, ptr %10, align 8, !tbaa !4
  %indvars.iv.next = add nuw nsw i64 %indvars.iv, 1
  %exitcond.not = icmp eq i64 %indvars.iv.next, %wide.trip.count
  br i1 %exitcond.not, label %._crit_edge, label %.lr.ph

._crit_edge:                                      ; preds = %.lr.ph
  %.not30 = icmp eq i32 %3, 1
  br i1 %.not30, label %._crit_edge.thread, label %11

11:                                               ; preds = %._crit_edge
  %12 = getelementptr inbounds nuw i8, ptr %2, i64 8
  %13 = load i64, ptr %12, align 8, !tbaa !4
  %14 = xor i64 %13, -1
  store i64 %14, ptr %12, align 8, !tbaa !4
  %.not = icmp eq i32 %3, 2
  br i1 %.not, label %._crit_edge.thread, label %15

15:                                               ; preds = %11
  %16 = getelementptr inbounds nuw i8, ptr %2, i64 16
  %17 = load i64, ptr %16, align 8, !tbaa !4
  %18 = xor i64 %17, -1
  store i64 %18, ptr %16, align 8, !tbaa !4
  %19 = icmp ugt i32 %3, 8
  br i1 %19, label %20, label %._crit_edge.thread

20:                                               ; preds = %15
  %21 = getelementptr inbounds nuw i8, ptr %2, i64 64
  %22 = load i64, ptr %21, align 8, !tbaa !4
  %23 = xor i64 %22, -1
  store i64 %23, ptr %21, align 8, !tbaa !4
  %24 = icmp ugt i32 %3, 12
  br i1 %24, label %25, label %._crit_edge.thread

25:                                               ; preds = %20
  %26 = getelementptr inbounds nuw i8, ptr %2, i64 96
  %27 = load i64, ptr %26, align 8, !tbaa !4
  %28 = xor i64 %27, -1
  store i64 %28, ptr %26, align 8, !tbaa !4
  %29 = icmp ugt i32 %3, 17
  br i1 %29, label %30, label %._crit_edge.thread

30:                                               ; preds = %25
  %31 = getelementptr inbounds nuw i8, ptr %2, i64 136
  %32 = load i64, ptr %31, align 8, !tbaa !4
  %33 = xor i64 %32, -1
  store i64 %33, ptr %31, align 8, !tbaa !4
  %34 = icmp ugt i32 %3, 20
  br i1 %34, label %35, label %._crit_edge.thread

35:                                               ; preds = %30
  %36 = getelementptr inbounds nuw i8, ptr %2, i64 160
  %37 = load i64, ptr %36, align 8, !tbaa !4
  %38 = xor i64 %37, -1
  store i64 %38, ptr %36, align 8, !tbaa !4
  br label %._crit_edge.thread

._crit_edge.thread:                               ; preds = %4, %11, %20, %30, %35, %25, %15, %._crit_edge
  ret void
}